target datalayout = "e-m:e-p270:32:32-p271:32:32-p272:64:64-i64:64-i128:128-f80:128-n8:16:32:64-S128"
target triple = "x86_64-pc-linux-gnu"

%"class.std::__shared_count" = type { ptr }
%"struct.OpenColorIO_v2_5dev::GradingControlPoint" = type { float, float }
%"class.OpenColorIO_v2_5dev::GradingBSplineCurveImpl" = type { %"class.OpenColorIO_v2_5dev::GradingBSplineCurve", %"class.std::vector", %"class.std::vector.3" }
%"class.OpenColorIO_v2_5dev::GradingBSplineCurve" = type { ptr }
%"class.std::vector" = type { %"struct.std::_Vector_base" }
%"struct.std::_Vector_base" = type { %"struct.std::_Vector_base<OpenColorIO_v2_5dev::GradingControlPoint, std::allocator<OpenColorIO_v2_5dev::GradingControlPoint>>::_Vector_impl" }
%"struct.std::_Vector_base<OpenColorIO_v2_5dev::GradingControlPoint, std::allocator<OpenColorIO_v2_5dev::GradingControlPoint>>::_Vector_impl" = type { %"struct.std::_Vector_base<OpenColorIO_v2_5dev::GradingControlPoint, std::allocator<OpenColorIO_v2_5dev::GradingControlPoint>>::_Vector_impl_data" }
%"struct.std::_Vector_base<OpenColorIO_v2_5dev::GradingControlPoint, std::allocator<OpenColorIO_v2_5dev::GradingControlPoint>>::_Vector_impl_data" = type { ptr, ptr, ptr }
%"class.std::vector.3" = type { %"struct.std::_Vector_base.4" }
%"struct.std::_Vector_base.4" = type { %"struct.std::_Vector_base<float, std::allocator<float>>::_Vector_impl" }
%"struct.std::_Vector_base<float, std::allocator<float>>::_Vector_impl" = type { %"struct.std::_Vector_base<float, std::allocator<float>>::_Vector_impl_data" }
%"struct.std::_Vector_base<float, std::allocator<float>>::_Vector_impl_data" = type { ptr, ptr, ptr }
%"class.__gnu_cxx::__normal_iterator" = type { ptr }
%"class.std::__shared_ptr.13" = type { ptr, %"class.std::__shared_count" }

@_ZTIN19OpenColorIO_v2_5dev19GradingBSplineCurveE = linkonce_odr constant { ptr, ptr } { ptr getelementptr inbounds (ptr, ptr @_ZTVN10__cxxabiv117__class_type_infoE, i64 2), ptr @_ZTSN19OpenColorIO_v2_5dev19GradingBSplineCurveE }, comdat, align 8

; Function Attrs: mustprogress nounwind uwtable
define linkonce_odr hidden noundef nonnull align 8 dereferenceable(8) ptr @_ZNK9__gnu_cxx17__normal_iteratorIPKN19OpenColorIO_v2_5dev19GradingControlPointESt6vectorIS2_SaIS2_EEE4baseEv(ptr noundef nonnull align 8 dereferenceable(8) %0) #3 comdat align 2 {
  %2 = alloca ptr, align 8
  store ptr %0, ptr %2, align 8, !tbaa !74
  %3 = load ptr, ptr %2, align 8
  %4 = getelementptr inbounds nuw %"class.__gnu_cxx::__normal_iterator", ptr %3, i32 0, i32 0
  ret ptr %4
}

; Function Attrs: mustprogress nounwind uwtable
define linkonce_odr hidden void @_ZN9__gnu_cxx17__normal_iteratorIPKN19OpenColorIO_v2_5dev19GradingControlPointESt6vectorIS2_SaIS2_EEEC2ERKS4_(ptr noundef nonnull align 8 dereferenceable(8) %0, ptr noundef nonnull align 8 dereferenceable(8) %1) unnamed_addr #3 comdat align 2 {
  %3 = alloca ptr, align 8
  %4 = alloca ptr, align 8
  store ptr %0, ptr %3, align 8, !tbaa !74
  store ptr %1, ptr %4, align 8, !tbaa !195
  %5 = load ptr, ptr %3, align 8
  %6 = getelementptr inbounds nuw %"class.__gnu_cxx::__normal_iterator", ptr %5, i32 0, i32 0
  %7 = load ptr, ptr %4, align 8, !tbaa !195
  %8 = load ptr, ptr %7, align 8, !tbaa !22
  store ptr %8, ptr %6, align 8, !tbaa !76
  ret void
}

; Function Attrs: mustprogress nounwind uwtable
define linkonce_odr hidden noundef nonnull align 8 dereferenceable(8) ptr @_ZN9__gnu_cxx17__normal_iteratorIPKN19OpenColorIO_v2_5dev19GradingControlPointESt6vectorIS2_SaIS2_EEEppEv(ptr noundef nonnull align 8 dereferenceable(8) %0) #3 comdat align 2 {
  %2 = alloca ptr, align 8
  store ptr %0, ptr %2, align 8, !tbaa !74
  %3 = load ptr, ptr %2, align 8
  %4 = getelementptr inbounds nuw %"class.__gnu_cxx::__normal_iterator", ptr %3, i32 0, i32 0
  %5 = load ptr, ptr %4, align 8, !tbaa !76
  %6 = getelementptr inbounds nuw %"struct.OpenColorIO_v2_5dev::GradingControlPoint", ptr %5, i32 1
  store ptr %6, ptr %4, align 8, !tbaa !76
  ret ptr %3
}

; Function Attrs: mustprogress nounwind uwtable
define linkonce_odr hidden noundef nonnull align 4 dereferenceable(8) ptr @_ZNK9__gnu_cxx17__normal_iteratorIPKN19OpenColorIO_v2_5dev19GradingControlPointESt6vectorIS2_SaIS2_EEEdeEv(ptr noundef nonnull align 8 dereferenceable(8) %0) #3 comdat align 2 {
  %2 = alloca ptr, align 8
  store ptr %0, ptr %2, align 8, !tbaa !74
  %3 = load ptr, ptr %2, align 8
  %4 = getelementptr inbounds nuw %"class.__gnu_cxx::__normal_iterator", ptr %3, i32 0, i32 0
  %5 = load ptr, ptr %4, align 8, !tbaa !76
  ret ptr %5
}

; Function Attrs: inlinehint mustprogress nounwind uwtable
define linkonce_odr noundef zeroext i1 @_ZN9__gnu_cxxneIPKN19OpenColorIO_v2_5dev19GradingControlPointESt6vectorIS2_SaIS2_EEEEbRKNS_17__normal_iteratorIT_T0_EESD_(ptr noundef nonnull align 8 dereferenceable(8) %0, ptr noundef nonnull align 8 dereferenceable(8) %1) #7 comdat {
  %3 = alloca ptr, align 8
  %4 = alloca ptr, align 8
  store ptr %0, ptr %3, align 8, !tbaa !74
  store ptr %1, ptr %4, align 8, !tbaa !74
  %5 = load ptr, ptr %3, align 8, !tbaa !74
  %6 = call noundef nonnull align 8 dereferenceable(8) ptr @_ZNK9__gnu_cxx17__normal_iteratorIPKN19OpenColorIO_v2_5dev19GradingControlPointESt6vectorIS2_SaIS2_EEE4baseEv(ptr noundef nonnull align 8 dereferenceable(8) %5) #21
  %7 = load ptr, ptr %6, align 8, !tbaa !22
  %8 = load ptr, ptr %4, align 8, !tbaa !74
  %9 = call noundef nonnull align 8 dereferenceable(8) ptr @_ZNK9__gnu_cxx17__normal_iteratorIPKN19OpenColorIO_v2_5dev19GradingControlPointESt6vectorIS2_SaIS2_EEE4baseEv(ptr noundef nonnull align 8 dereferenceable(8) %8) #21
  %10 = load ptr, ptr %9, align 8, !tbaa !22
  %11 = icmp ne ptr %7, %10
  ret i1 %11
}

; Function Attrs: mustprogress nounwind uwtable
define linkonce_odr hidden ptr @_ZNKSt6vectorIN19OpenColorIO_v2_5dev19GradingControlPointESaIS1_EE3endEv(ptr noundef nonnull align 8 dereferenceable(24) %0) #3 comdat align 2 {
  %2 = alloca %"class.__gnu_cxx::__normal_iterator", align 8
  %3 = alloca ptr, align 8
  store ptr %0, ptr %3, align 8, !tbaa !40
  %4 = load ptr, ptr %3, align 8
  %5 = getelementptr inbounds nuw %"struct.std::_Vector_base", ptr %4, i32 0, i32 0
  %6 = getelementptr inbounds nuw %"struct.std::_Vector_base<OpenColorIO_v2_5dev::GradingControlPoint, std::allocator<OpenColorIO_v2_5dev::GradingControlPoint>>::_Vector_impl_data", ptr %5, i32 0, i32 1
  call void @_ZN9__gnu_cxx17__normal_iteratorIPKN19OpenColorIO_v2_5dev19GradingControlPointESt6vectorIS2_SaIS2_EEEC2ERKS4_(ptr noundef nonnull align 8 dereferenceable(8) %2, ptr noundef nonnull align 8 dereferenceable(8) %6) #21
  %7 = getelementptr inbounds nuw %"class.__gnu_cxx::__normal_iterator", ptr %2, i32 0, i32 0
  %8 = load ptr, ptr %7, align 8
  ret ptr %8
}

; Function Attrs: mustprogress nounwind uwtable
define linkonce_odr hidden ptr @_ZNKSt6vectorIN19OpenColorIO_v2_5dev19GradingControlPointESaIS1_EE5beginEv(ptr noundef nonnull align 8 dereferenceable(24) %0) #3 comdat align 2 {
  %2 = alloca %"class.__gnu_cxx::__normal_iterator", align 8
  %3 = alloca ptr, align 8
  store ptr %0, ptr %3, align 8, !tbaa !40
  %4 = load ptr, ptr %3, align 8
  %5 = getelementptr inbounds nuw %"struct.std::_Vector_base", ptr %4, i32 0, i32 0
  %6 = getelementptr inbounds nuw %"struct.std::_Vector_base<OpenColorIO_v2_5dev::GradingControlPoint, std::allocator<OpenColorIO_v2_5dev::GradingControlPoint>>::_Vector_impl_data", ptr %5, i32 0, i32 0
  call void @_ZN9__gnu_cxx17__normal_iteratorIPKN19OpenColorIO_v2_5dev19GradingControlPointESt6vectorIS2_SaIS2_EEEC2ERKS4_(ptr noundef nonnull align 8 dereferenceable(8) %2, ptr noundef nonnull align 8 dereferenceable(8) %6) #21
  %7 = getelementptr inbounds nuw %"class.__gnu_cxx::__normal_iterator", ptr %2, i32 0, i32 0
  %8 = load ptr, ptr %7, align 8
  ret ptr %8
}

; Function Attrs: mustprogress uwtable
define hidden noundef zeroext i1 @_ZNK19OpenColorIO_v2_5dev23GradingBSplineCurveImpl10isIdentityEv(ptr noundef nonnull align 8 dereferenceable(56) %0) #0 align 2 {
  %2 = alloca i1, align 1
  %3 = alloca ptr, align 8
  %4 = alloca ptr, align 8
  %5 = alloca %"class.__gnu_cxx::__normal_iterator", align 8
  %6 = alloca %"class.__gnu_cxx::__normal_iterator", align 8
  %7 = alloca i32, align 4
  %8 = alloca ptr, align 8
  store ptr %0, ptr %3, align 8, !tbaa !34
  %9 = load ptr, ptr %3, align 8
  call void @llvm.lifetime.start.p0(i64 8, ptr %4) #21
  %10 = getelementptr inbounds nuw %"class.OpenColorIO_v2_5dev::GradingBSplineCurveImpl", ptr %9, i32 0, i32 1
  store ptr %10, ptr %4, align 8, !tbaa !40
  call void @llvm.lifetime.start.p0(i64 8, ptr %5) #21
  %11 = load ptr, ptr %4, align 8, !tbaa !40
  %12 = call ptr @_ZNKSt6vectorIN19OpenColorIO_v2_5dev19GradingControlPointESaIS1_EE5beginEv(ptr noundef nonnull align 8 dereferenceable(24) %11) #21
  %13 = getelementptr inbounds nuw %"class.__gnu_cxx::__normal_iterator", ptr %5, i32 0, i32 0
  store ptr %12, ptr %13, align 8
  call void @llvm.lifetime.start.p0(i64 8, ptr %6) #21
  %14 = load ptr, ptr %4, align 8, !tbaa !40
  %15 = call ptr @_ZNKSt6vectorIN19OpenColorIO_v2_5dev19GradingControlPointESaIS1_EE3endEv(ptr noundef nonnull align 8 dereferenceable(24) %14) #21
  %16 = getelementptr inbounds nuw %"class.__gnu_cxx::__normal_iterator", ptr %6, i32 0, i32 0
  store ptr %15, ptr %16, align 8
  br label %17

17:                                               ; preds = %34, %1
  %18 = call noundef zeroext i1 @_ZN9__gnu_cxxneIPKN19OpenColorIO_v2_5dev19GradingControlPointESt6vectorIS2_SaIS2_EEEEbRKNS_17__normal_iteratorIT_T0_EESD_(ptr noundef nonnull align 8 dereferenceable(8) %5, ptr noundef nonnull align 8 dereferenceable(8) %6) #21
  br i1 %18, label %20, label %19

19:                                               ; preds = %17
  store i32 2, ptr %7, align 4
  br label %36

20:                                               ; preds = %17
  call void @llvm.lifetime.start.p0(i64 8, ptr %8) #21
  %21 = call noundef nonnull align 4 dereferenceable(8) ptr @_ZNK9__gnu_cxx17__normal_iteratorIPKN19OpenColorIO_v2_5dev19GradingControlPointESt6vectorIS2_SaIS2_EEEdeEv(ptr noundef nonnull align 8 dereferenceable(8) %5) #21
  store ptr %21, ptr %8, align 8, !tbaa !22
  %22 = load ptr, ptr %8, align 8, !tbaa !22
  %23 = getelementptr inbounds nuw %"struct.OpenColorIO_v2_5dev::GradingControlPoint", ptr %22, i32 0, i32 0
  %24 = load float, ptr %23, align 4, !tbaa !70
  %25 = load ptr, ptr %8, align 8, !tbaa !22
  %26 = getelementptr inbounds nuw %"struct.OpenColorIO_v2_5dev::GradingControlPoint", ptr %25, i32 0, i32 1
  %27 = load float, ptr %26, align 4, !tbaa !73
  %28 = fcmp une float %24, %27
  br i1 %28, label %29, label %30

29:                                               ; preds = %20
  store i1 false, ptr %2, align 1
  store i32 1, ptr %7, align 4
  br label %31

30:                                               ; preds = %20
  store i32 0, ptr %7, align 4
  br label %31

31:                                               ; preds = %30, %29
  call void @llvm.lifetime.end.p0(i64 8, ptr %8) #21
  %32 = load i32, ptr %7, align 4
  switch i32 %32, label %36 [
    i32 0, label %33
  ]

33:                                               ; preds = %31
  br label %34

34:                                               ; preds = %33
  %35 = call noundef nonnull align 8 dereferenceable(8) ptr @_ZN9__gnu_cxx17__normal_iteratorIPKN19OpenColorIO_v2_5dev19GradingControlPointESt6vectorIS2_SaIS2_EEEppEv(ptr noundef nonnull align 8 dereferenceable(8) %5) #21
  br label %17

36:                                               ; preds = %31, %19
  call void @llvm.lifetime.end.p0(i64 8, ptr %6) #21
  call void @llvm.lifetime.end.p0(i64 8, ptr %5) #21
  call void @llvm.lifetime.end.p0(i64 8, ptr %4) #21
  %37 = load i32, ptr %7, align 4
  switch i32 %37, label %47 [
    i32 2, label %38
    i32 1, label %45
  ]

38:                                               ; preds = %36
  %39 = load ptr, ptr %9, align 8, !tbaa !24
  %40 = getelementptr inbounds ptr, ptr %39, i64 7
  %41 = load ptr, ptr %40, align 8
  %42 = call noundef zeroext i1 %41(ptr noundef nonnull align 8 dereferenceable(56) %9)
  br i1 %42, label %44, label %43

43:                                               ; preds = %38
  store i1 false, ptr %2, align 1
  br label %45

44:                                               ; preds = %38
  store i1 true, ptr %2, align 1
  br label %45

45:                                               ; preds = %44, %43, %36
  %46 = load i1, ptr %2, align 1
  ret i1 %46

47:                                               ; preds = %36
  unreachable
}

; Function Attrs: mustprogress nounwind uwtable
define linkonce_odr hidden noundef ptr @_ZNKSt12__shared_ptrIKN19OpenColorIO_v2_5dev19GradingBSplineCurveELN9__gnu_cxx12_Lock_policyE2EE3getEv(ptr noundef nonnull align 8 dereferenceable(16) %0) #3 comdat align 2 {
  %2 = alloca ptr, align 8
  store ptr %0, ptr %2, align 8, !tbaa !80
  %3 = load ptr, ptr %2, align 8
  %4 = getelementptr inbounds nuw %"class.std::__shared_ptr.13", ptr %3, i32 0, i32 0
  %5 = load ptr, ptr %4, align 8, !tbaa !82
  ret ptr %5
}

; Function Attrs: mustprogress uwtable
define hidden noundef zeroext i1 @_ZN19OpenColorIO_v2_5dev22IsGradingCurveIdentityERKSt10shared_ptrIKNS_19GradingBSplineCurveEE(ptr noundef nonnull align 8 dereferenceable(16) %0) #0 {
  %2 = alloca i1, align 1
  %3 = alloca ptr, align 8
  %4 = alloca ptr, align 8
  %5 = alloca i32, align 4
  store ptr %0, ptr %3, align 8, !tbaa !78
  call void @llvm.lifetime.start.p0(i64 8, ptr %4) #21
  %6 = load ptr, ptr %3, align 8, !tbaa !78
  %7 = call noundef ptr @_ZNKSt12__shared_ptrIKN19OpenColorIO_v2_5dev19GradingBSplineCurveELN9__gnu_cxx12_Lock_policyE2EE3getEv(ptr noundef nonnull align 8 dereferenceable(16) %6) #21
  %8 = icmp eq ptr %7, null
  br i1 %8, label %11, label %9

9:                                                ; preds = %1
  %10 = call ptr @__dynamic_cast(ptr %7, ptr @_ZTIN19OpenColorIO_v2_5dev19GradingBSplineCurveE, ptr @_ZTIN19OpenColorIO_v2_5dev23GradingBSplineCurveImplE, i64 0) #21
  br label %12

11:                                               ; preds = %1
  br label %12

12:                                               ; preds = %11, %9
  %13 = phi ptr [ %10, %9 ], [ null, %11 ]
  store ptr %13, ptr %4, align 8, !tbaa !34
  %14 = load ptr, ptr %4, align 8, !tbaa !34
  %15 = icmp ne ptr %14, null
  br i1 %15, label %16, label %19

16:                                               ; preds = %12
  %17 = load ptr, ptr %4, align 8, !tbaa !34
  %18 = call noundef zeroext i1 @_ZNK19OpenColorIO_v2_5dev23GradingBSplineCurveImpl10isIdentityEv(ptr noundef nonnull align 8 dereferenceable(56) %17)
  store i1 %18, ptr %2, align 1
  store i32 1, ptr %5, align 4
  br label %20

19:                                               ; preds = %12
  store i1 false, ptr %2, align 1
  store i32 1, ptr %5, align 4
  br label %20

20:                                               ; preds = %19, %16
  call void @llvm.lifetime.end.p0(i64 8, ptr %4) #21
  %21 = load i1, ptr %2, align 1
  ret i1 %21
}