; Function Attrs: mustprogress uwtable
define hidden noundef zeroext i1 @_ZN19OpenColorIO_v2_5dev22IsGradingCurveIdentityERKSt10shared_ptrIKNS_19GradingBSplineCurveEE(ptr noundef nonnull readonly align 8 captures(none) dereferenceable(16) %0) local_unnamed_addr #0 {
  %2 = load ptr, ptr %0, align 8, !tbaa !67
  %3 = icmp eq ptr %2, null
  br i1 %3, label %_ZNK19OpenColorIO_v2_5dev23GradingBSplineCurveImpl10isIdentityEv.exit, label %4

4:                                                ; preds = %1
  %5 = tail call ptr @__dynamic_cast(ptr nonnull %2, ptr nonnull @_ZTIN19OpenColorIO_v2_5dev19GradingBSplineCurveE, ptr nonnull @_ZTIN19OpenColorIO_v2_5dev23GradingBSplineCurveImplE, i64 0) #22
  %.not = icmp eq ptr %5, null
  br i1 %.not, label %_ZNK19OpenColorIO_v2_5dev23GradingBSplineCurveImpl10isIdentityEv.exit, label %6

6:                                                ; preds = %4
  %7 = getelementptr inbounds nuw i8, ptr %5, i64 8
  %8 = load ptr, ptr %7, align 8, !tbaa !44
  %9 = getelementptr inbounds nuw i8, ptr %5, i64 16
  %10 = load ptr, ptr %9, align 8, !tbaa !44
  %.not15.i = icmp eq ptr %8, %10
  br i1 %.not15.i, label %._crit_edge.i, label %.lr.ph.i

11:                                               ; preds = %.lr.ph.i
  %12 = getelementptr inbounds nuw i8, ptr %.sroa.09.016.i, i64 8
  %.not.i = icmp eq ptr %12, %10
  br i1 %.not.i, label %._crit_edge.i, label %.lr.ph.i

.lr.ph.i:                                         ; preds = %6, %11
  %.sroa.09.016.i = phi ptr [ %12, %11 ], [ %8, %6 ]
  %13 = load float, ptr %.sroa.09.016.i, align 4, !tbaa !63
  %14 = getelementptr inbounds nuw i8, ptr %.sroa.09.016.i, i64 4
  %15 = load float, ptr %14, align 4, !tbaa !66
  %16 = fcmp oeq float %13, %15
  br i1 %16, label %11, label %_ZNK19OpenColorIO_v2_5dev23GradingBSplineCurveImpl10isIdentityEv.exit

._crit_edge.i:                                    ; preds = %11, %6
  %17 = load ptr, ptr %5, align 8, !tbaa !26
  %18 = getelementptr inbounds nuw i8, ptr %17, i64 56
  %19 = load ptr, ptr %18, align 8
  %20 = tail call noundef zeroext i1 %19(ptr noundef nonnull align 8 dereferenceable(56) %5)
  br label %_ZNK19OpenColorIO_v2_5dev23GradingBSplineCurveImpl10isIdentityEv.exit

_ZNK19OpenColorIO_v2_5dev23GradingBSplineCurveImpl10isIdentityEv.exit: ; preds = %.lr.ph.i, %1, %._crit_edge.i, %4
  %.0 = phi i1 [ false, %4 ], [ %20, %._crit_edge.i ], [ false, %1 ], [ false, %.lr.ph.i ]
  ret i1 %.0
}